; Function Attrs: nounwind sspstrong uwtable
define dso_local void @tcg_gen_ext_i32_i64(ptr noundef %0, ptr noundef %1) local_unnamed_addr #2 {
  %3 = tail call align 8 ptr @llvm.threadlocal.address.p0(ptr align 8 @tcg_ctx)
  %4 = load ptr, ptr %3, align 8
  %5 = ptrtoint ptr %0 to i64
  %6 = getelementptr inbounds nuw i8, ptr %4, i64 %5
  %7 = ptrtoint ptr %6 to i64
  %8 = ptrtoint ptr %1 to i64
  %9 = getelementptr inbounds nuw i8, ptr %4, i64 %8
  %10 = ptrtoint ptr %9 to i64
  %11 = tail call ptr @tcg_gen_op2(i32 noundef 99, i32 noundef 1, i64 noundef %7, i64 noundef %10)
  ret void
}